target datalayout = "e-m:e-p270:32:32-p271:32:32-p272:64:64-i64:64-i128:128-f80:128-n8:16:32:64-S128"
target triple = "x86_64-pc-linux-gnu"

%struct.boxf = type { %struct.pointf_s, %struct.pointf_s }
%struct.pointf_s = type { double, double }

; Function Attrs: nounwind uwtable
define void @gvrender_box(ptr noundef %0, ptr noundef byval(%struct.boxf) align 8 %1, i32 noundef %2) #0 {
  %4 = alloca ptr, align 8
  %5 = alloca i32, align 4
  %6 = alloca [4 x %struct.pointf_s], align 16
  store ptr %0, ptr %4, align 8, !tbaa !3
  store i32 %2, ptr %5, align 4, !tbaa !59
  call void @llvm.lifetime.start.p0(i64 64, ptr %6) #15
  %7 = getelementptr inbounds [4 x %struct.pointf_s], ptr %6, i64 0, i64 0
  %8 = getelementptr inbounds nuw %struct.boxf, ptr %1, i32 0, i32 0
  call void @llvm.memcpy.p0.p0.i64(ptr align 16 %7, ptr align 8 %8, i64 16, i1 false), !tbaa.struct !76
  %9 = getelementptr inbounds [4 x %struct.pointf_s], ptr %6, i64 0, i64 2
  %10 = getelementptr inbounds nuw %struct.boxf, ptr %1, i32 0, i32 1
  call void @llvm.memcpy.p0.p0.i64(ptr align 16 %9, ptr align 8 %10, i64 16, i1 false), !tbaa.struct !76
  %11 = getelementptr inbounds [4 x %struct.pointf_s], ptr %6, i64 0, i64 0
  %12 = getelementptr inbounds nuw %struct.pointf_s, ptr %11, i32 0, i32 0
  %13 = load double, ptr %12, align 16, !tbaa !80
  %14 = getelementptr inbounds [4 x %struct.pointf_s], ptr %6, i64 0, i64 1
  %15 = getelementptr inbounds nuw %struct.pointf_s, ptr %14, i32 0, i32 0
  store double %13, ptr %15, align 16, !tbaa !80
  %16 = getelementptr inbounds [4 x %struct.pointf_s], ptr %6, i64 0, i64 2
  %17 = getelementptr inbounds nuw %struct.pointf_s, ptr %16, i32 0, i32 1
  %18 = load double, ptr %17, align 8, !tbaa !82
  %19 = getelementptr inbounds [4 x %struct.pointf_s], ptr %6, i64 0, i64 1
  %20 = getelementptr inbounds nuw %struct.pointf_s, ptr %19, i32 0, i32 1
  store double %18, ptr %20, align 8, !tbaa !82
  %21 = getelementptr inbounds [4 x %struct.pointf_s], ptr %6, i64 0, i64 2
  %22 = getelementptr inbounds nuw %struct.pointf_s, ptr %21, i32 0, i32 0
  %23 = load double, ptr %22, align 16, !tbaa !80
  %24 = getelementptr inbounds [4 x %struct.pointf_s], ptr %6, i64 0, i64 3
  %25 = getelementptr inbounds nuw %struct.pointf_s, ptr %24, i32 0, i32 0
  store double %23, ptr %25, align 16, !tbaa !80
  %26 = getelementptr inbounds [4 x %struct.pointf_s], ptr %6, i64 0, i64 0
  %27 = getelementptr inbounds nuw %struct.pointf_s, ptr %26, i32 0, i32 1
  %28 = load double, ptr %27, align 8, !tbaa !82
  %29 = getelementptr inbounds [4 x %struct.pointf_s], ptr %6, i64 0, i64 3
  %30 = getelementptr inbounds nuw %struct.pointf_s, ptr %29, i32 0, i32 1
  store double %28, ptr %30, align 8, !tbaa !82
  %31 = load ptr, ptr %4, align 8, !tbaa !3
  %32 = getelementptr inbounds [4 x %struct.pointf_s], ptr %6, i64 0, i64 0
  %33 = load i32, ptr %5, align 4, !tbaa !59
  call void @gvrender_polygon(ptr noundef %31, ptr noundef %32, i64 noundef 4, i32 noundef %33)
  call void @llvm.lifetime.end.p0(i64 64, ptr %6) #15
  ret void
}