; Function Attrs: nounwind uwtable
define void @gvrender_box(ptr noundef %0, ptr noundef readonly byval(%struct.boxf) align 8 captures(none) %1, i32 noundef %2) local_unnamed_addr #0 {
  %4 = alloca [4 x %struct.pointf_s], align 16
  call void @llvm.lifetime.start.p0(i64 64, ptr nonnull %4) #22
  call void @llvm.memcpy.p0.p0.i64(ptr noundef nonnull align 16 dereferenceable(16) %4, ptr noundef nonnull align 8 dereferenceable(16) %1, i64 16, i1 false), !tbaa.struct !127
  %5 = getelementptr inbounds nuw i8, ptr %4, i64 32
  %6 = getelementptr inbounds nuw i8, ptr %1, i64 16
  call void @llvm.memcpy.p0.p0.i64(ptr noundef nonnull align 16 dereferenceable(16) %5, ptr noundef nonnull align 8 dereferenceable(16) %6, i64 16, i1 false), !tbaa.struct !127
  %7 = load double, ptr %4, align 16, !tbaa !76
  %8 = getelementptr inbounds nuw i8, ptr %4, i64 16
  store double %7, ptr %8, align 16, !tbaa !76
  %9 = getelementptr inbounds nuw i8, ptr %4, i64 40
  %10 = load double, ptr %9, align 8, !tbaa !75
  %11 = getelementptr inbounds nuw i8, ptr %4, i64 24
  store double %10, ptr %11, align 8, !tbaa !75
  %12 = load double, ptr %5, align 16, !tbaa !76
  %13 = getelementptr inbounds nuw i8, ptr %4, i64 48
  store double %12, ptr %13, align 16, !tbaa !76
  %14 = getelementptr inbounds nuw i8, ptr %4, i64 8
  %15 = load double, ptr %14, align 8, !tbaa !75
  %16 = getelementptr inbounds nuw i8, ptr %4, i64 56
  store double %15, ptr %16, align 8, !tbaa !75
  call void @gvrender_polygon(ptr noundef %0, ptr noundef nonnull %4, i64 noundef 4, i32 noundef %2)
  call void @llvm.lifetime.end.p0(i64 64, ptr nonnull %4) #22
  ret void
}